; ModuleID = '11/111.c'
source_filename = "11/111.c"
target datalayout = "e-m:e-p270:32:32-p271:32:32-p272:64:64-i64:64-f80:128-n8:16:32:64-S128"
target triple = "x86_64-pc-linux-gnu"

@__const.main.days = private unnamed_addr constant [13 x i32] [i32 0, i32 31, i32 28, i32 31, i32 30, i32 31, i32 30, i32 31, i32 31, i32 30, i32 31, i32 30, i32 31], align 16
@.str = private unnamed_addr constant [7 x i8] c"%d%d%d\00", align 1
@.str.1 = private unnamed_addr constant [16 x i8] c"Illegal input.\0A\00", align 1
@.str.2 = private unnamed_addr constant [3 x i8] c"%d\00", align 1

; Function Attrs: noinline nounwind uwtable
define dso_local i32 @main() #0 {
  %1 = alloca i32, align 4
  %2 = alloca [13 x i32], align 16
  %3 = alloca i32, align 4
  %4 = alloca i32, align 4
  %5 = alloca i32, align 4
  %6 = alloca i32, align 4
  %7 = alloca i32, align 4
  %8 = alloca i32, align 4
  store i32 0, i32* %1, align 4
  %9 = bitcast [13 x i32]* %2 to i8*
  call void @llvm.memcpy.p0i8.p0i8.i64(i8* align 16 %9, i8* align 16 bitcast ([13 x i32]* @__const.main.days to i8*), i64 52, i1 false)
  %10 = call i32 (i8*, ...) @__isoc99_scanf(i8* getelementptr inbounds ([7 x i8], [7 x i8]* @.str, i64 0, i64 0), i32* %3, i32* %4, i32* %5)
  %11 = load i32, i32* %3, align 4
  %12 = srem i32 %11, 4
  %13 = icmp eq i32 %12, 0
  br i1 %13, label %14, label %18

14:                                               ; preds = %0
  %15 = load i32, i32* %3, align 4
  %16 = srem i32 %15, 100
  %17 = icmp ne i32 %16, 0
  br i1 %17, label %22, label %18

18:                                               ; preds = %14, %0
  %19 = load i32, i32* %3, align 4
  %20 = srem i32 %19, 400
  %21 = icmp eq i32 %20, 0
  br label %22

22:                                               ; preds = %18, %14
  %23 = phi i1 [ true, %14 ], [ %21, %18 ]
  %24 = zext i1 %23 to i32
  store i32 %24, i32* %6, align 4
  %25 = load i32, i32* %6, align 4
  %26 = icmp ne i32 %25, 0
  br i1 %26, label %27, label %38

27:                                               ; preds = %22
  %28 = load i32, i32* %4, align 4
  %29 = icmp eq i32 %28, 2
  br i1 %29, label %30, label %38

30:                                               ; preds = %27
  %31 = load i32, i32* %5, align 4
  %32 = icmp slt i32 %31, 1
  br i1 %32, label %36, label %33

33:                                               ; preds = %30
  %34 = load i32, i32* %5, align 4
  %35 = icmp sgt i32 %34, 29
  br i1 %35, label %36, label %38

36:                                               ; preds = %33, %30
  %37 = call i32 (i8*, ...) @printf(i8* getelementptr inbounds ([16 x i8], [16 x i8]* @.str.1, i64 0, i64 0))
  store i32 -1, i32* %1, align 4
  br label %101

38:                                               ; preds = %33, %27, %22
  %39 = load i32, i32* %6, align 4
  %40 = icmp ne i32 %39, 0
  br i1 %40, label %41, label %56

41:                                               ; preds = %38
  %42 = load i32, i32* %4, align 4
  %43 = icmp ne i32 %42, 2
  br i1 %43, label %44, label %56

44:                                               ; preds = %41
  %45 = load i32, i32* %5, align 4
  %46 = icmp slt i32 %45, 1
  br i1 %46, label %54, label %47

47:                                               ; preds = %44
  %48 = load i32, i32* %5, align 4
  %49 = load i32, i32* %4, align 4
  %50 = sext i32 %49 to i64
  %51 = getelementptr inbounds [13 x i32], [13 x i32]* %2, i64 0, i64 %50
  %52 = load i32, i32* %51, align 4
  %53 = icmp sgt i32 %48, %52
  br i1 %53, label %54, label %56

54:                                               ; preds = %47, %44
  %55 = call i32 (i8*, ...) @printf(i8* getelementptr inbounds ([16 x i8], [16 x i8]* @.str.1, i64 0, i64 0))
  store i32 -1, i32* %1, align 4
  br label %101

56:                                               ; preds = %47, %41, %38
  %57 = load i32, i32* %6, align 4
  %58 = icmp ne i32 %57, 0
  br i1 %58, label %71, label %59

59:                                               ; preds = %56
  %60 = load i32, i32* %5, align 4
  %61 = icmp slt i32 %60, 1
  br i1 %61, label %69, label %62

62:                                               ; preds = %59
  %63 = load i32, i32* %5, align 4
  %64 = load i32, i32* %4, align 4
  %65 = sext i32 %64 to i64
  %66 = getelementptr inbounds [13 x i32], [13 x i32]* %2, i64 0, i64 %65
  %67 = load i32, i32* %66, align 4
  %68 = icmp sgt i32 %63, %67
  br i1 %68, label %69, label %71

69:                                               ; preds = %62, %59
  %70 = call i32 (i8*, ...) @printf(i8* getelementptr inbounds ([16 x i8], [16 x i8]* @.str.1, i64 0, i64 0))
  store i32 -1, i32* %1, align 4
  br label %101

71:                                               ; preds = %62, %56
  store i32 0, i32* %7, align 4
  store i32 0, i32* %8, align 4
  br label %72

72:                                               ; preds = %83, %71
  %73 = load i32, i32* %8, align 4
  %74 = load i32, i32* %4, align 4
  %75 = icmp slt i32 %73, %74
  br i1 %75, label %76, label %86

76:                                               ; preds = %72
  %77 = load i32, i32* %8, align 4
  %78 = sext i32 %77 to i64
  %79 = getelementptr inbounds [13 x i32], [13 x i32]* %2, i64 0, i64 %78
  %80 = load i32, i32* %79, align 4
  %81 = load i32, i32* %7, align 4
  %82 = add nsw i32 %81, %80
  store i32 %82, i32* %7, align 4
  br label %83

83:                                               ; preds = %76
  %84 = load i32, i32* %8, align 4
  %85 = add nsw i32 %84, 1
  store i32 %85, i32* %8, align 4
  br label %72

86:                                               ; preds = %72
  %87 = load i32, i32* %5, align 4
  %88 = load i32, i32* %7, align 4
  %89 = add nsw i32 %88, %87
  store i32 %89, i32* %7, align 4
  %90 = load i32, i32* %4, align 4
  %91 = icmp sgt i32 %90, 2
  br i1 %91, label %92, label %98

92:                                               ; preds = %86
  %93 = load i32, i32* %6, align 4
  %94 = icmp ne i32 %93, 0
  br i1 %94, label %95, label %98

95:                                               ; preds = %92
  %96 = load i32, i32* %7, align 4
  %97 = add nsw i32 %96, 1
  store i32 %97, i32* %7, align 4
  br label %98

98:                                               ; preds = %95, %92, %86
  %99 = load i32, i32* %7, align 4
  %100 = call i32 (i8*, ...) @printf(i8* getelementptr inbounds ([3 x i8], [3 x i8]* @.str.2, i64 0, i64 0), i32 %99)
  store i32 0, i32* %1, align 4
  br label %101

101:                                              ; preds = %98, %69, %54, %36
  %102 = load i32, i32* %1, align 4
  ret i32 %102
}

; Function Attrs: argmemonly nounwind willreturn
declare void @llvm.memcpy.p0i8.p0i8.i64(i8* noalias nocapture writeonly, i8* noalias nocapture readonly, i64, i1 immarg) #1

declare dso_local i32 @__isoc99_scanf(i8*, ...) #2

declare dso_local i32 @printf(i8*, ...) #2


!llvm.module.flags = !{!0}
!llvm.ident = !{!1}

!0 = !{i32 1, !"wchar_size", i32 4}
!1 = !{!"clang version 10.0.0-4ubuntu1 "}
